; Function Attrs: mustprogress nounwind uwtable
define dso_local noundef zeroext i1 @_ZN5clang4Sema23RequireCompleteExprTypeEPNS_4ExprEj(ptr noundef nonnull align 8 dereferenceable(17560) %0, ptr noundef nonnull %1, i32 noundef %2) local_unnamed_addr #0 align 2 {
  %4 = alloca %"class.clang::Sema::BoundTypeDiagnoser", align 8
  store ptr getelementptr inbounds nuw inrange(-16, 24) (i8, ptr @_ZTVN5clang4Sema18BoundTypeDiagnoserIJEEE, i64 16), ptr %4, align 8
  %5 = getelementptr inbounds nuw i8, ptr %4, i64 8
  store i32 %2, ptr %5, align 8
  %6 = tail call i32 @_ZNK5clang4Expr10getExprLocEv(ptr noundef nonnull align 8 dereferenceable(16) %1) #23
  %7 = getelementptr inbounds nuw i8, ptr %1, i64 8
  %.sroa.0.0.copyload.i.i.i = load i64, ptr %7, align 8
  %8 = and i64 %.sroa.0.0.copyload.i.i.i, -16
  %9 = inttoptr i64 %8 to ptr
  %10 = load ptr, ptr %9, align 16
  %11 = getelementptr inbounds nuw i8, ptr %10, i64 8
  %.sroa.0.0.copyload.i.i.i.i.i.i = load i64, ptr %11, align 8
  %12 = and i64 %.sroa.0.0.copyload.i.i.i.i.i.i, -16
  %13 = inttoptr i64 %12 to ptr
  %14 = load ptr, ptr %13, align 16
  %15 = getelementptr inbounds nuw i8, ptr %14, i64 16
  %16 = load i8, ptr %15, align 16
  %17 = icmp eq i8 %16, 5
  br i1 %17, label %18, label %_ZN5clang4Sema23RequireCompleteExprTypeEPNS_4ExprENS0_16CompleteTypeKindERNS0_13TypeDiagnoserE.exit

18:                                               ; preds = %3
  tail call void @_ZN5clang4Sema22completeExprArrayBoundEPNS_4ExprE(ptr noundef nonnull align 8 dereferenceable(17560) %0, ptr noundef nonnull %1)
  %.sroa.0.0.copyload.i4.pre.i.i = load i64, ptr %7, align 8
  br label %_ZN5clang4Sema23RequireCompleteExprTypeEPNS_4ExprENS0_16CompleteTypeKindERNS0_13TypeDiagnoserE.exit

_ZN5clang4Sema23RequireCompleteExprTypeEPNS_4ExprENS0_16CompleteTypeKindERNS0_13TypeDiagnoserE.exit: ; preds = %3, %18
  %.sroa.0.0.copyload.i4.i.i = phi i64 [ %.sroa.0.0.copyload.i4.pre.i.i, %18 ], [ %.sroa.0.0.copyload.i.i.i, %3 ]
  %19 = call noundef zeroext i1 @_ZN5clang4Sema19RequireCompleteTypeENS_14SourceLocationENS_8QualTypeENS0_16CompleteTypeKindERNS0_13TypeDiagnoserE(ptr noundef nonnull align 8 dereferenceable(17560) %0, i32 %6, i64 %.sroa.0.0.copyload.i4.i.i, i32 noundef 1, ptr noundef nonnull align 8 dereferenceable(8) %4)
  ret i1 %19
}